Certificate:
    Data:
        Version: 3 (0x2)
        Serial Number: 3 (0x3)
        Signature Algorithm: sha256WithRSAEncryption
        Issuer: C=UK, ST=England, O=W3C, OU=Webapps, CN=2.rsa
        Validity
            Not Before: May 25 14:25:24 2011 GMT
            Not After : May 20 14:25:24 2031 GMT
        Subject: C=UK, ST=England, O=W3C, OU=Webapps, CN=revoked.13a.rsa
        Subject Public Key Info:
            Public Key Algorithm: rsaEncryption
            RSA Public Key: (2048 bit)
                Modulus (2048 bit):
                    00:bd:14:85:81:9a:bd:ba:5b:ed:93:8e:28:16:c1:
                    73:62:37:aa:f4:c7:0c:23:80:58:b4:d8:94:19:ad:
                    a4:42:bd:9d:b9:62:7e:90:ce:11:73:ca:3d:f1:0c:
                    f8:b8:d2:81:5d:a1:99:e7:1f:ec:73:01:6f:f5:dc:
                    23:ab:cc:d5:3a:bf:20:0c:17:be:4a:aa:dc:cc:42:
                    d8:ff:c6:e5:af:29:70:26:51:dd:5c:9f:44:a9:66:
                    2a:e1:5f:33:21:80:e2:88:4c:69:f3:5a:b8:85:6e:
                    6a:c0:0b:71:b3:31:37:a6:e5:62:b2:69:bd:8d:82:
                    f2:70:04:aa:38:00:37:25:ec:1b:8e:8f:bb:c9:c6:
                    96:9a:8d:63:9a:d2:e8:d4:85:18:66:13:d3:0a:ba:
                    89:5c:74:c6:a2:a0:d8:f3:c9:f7:c2:19:4a:e4:7c:
                    1e:d2:24:be:62:12:9f:90:59:cf:38:69:04:a3:b8:
                    2d:d6:0a:b2:76:6b:d0:ac:0d:11:37:8a:72:46:f0:
                    d4:5f:7c:aa:fe:09:cc:0b:b3:bd:63:5d:03:4b:07:
                    49:71:4b:c4:20:76:94:3f:e9:18:a3:50:dd:2f:c1:
                    fa:7e:3e:f5:28:dd:f4:70:c1:35:db:e4:07:56:ba:
                    2d:55:b8:51:84:1b:d7:1d:90:1a:99:ed:5e:7c:60:
                    9f:45
                Exponent: 65537 (0x10001)
        X509v3 extensions:
            X509v3 Basic Constraints: 
                CA:FALSE
            Netscape Comment: 
                OpenSSL Generated Certificate
            X509v3 Subject Key Identifier: 
                7D:83:60:24:00:93:52:FE:73:37:AF:85:A8:77:BD:A3:E4:C7:BA:F7
            X509v3 Authority Key Identifier: 
                keyid:7E:B4:82:46:9E:7C:A1:47:BE:88:F0:95:DC:88:1B:9E:84:ED:7F:8D

    Signature Algorithm: sha256WithRSAEncryption
        16:25:c3:d9:d3:2d:2a:bf:fc:8d:13:bf:5c:e1:9c:c2:89:c8:
        09:b3:a0:92:e5:38:c0:2e:d4:3d:c5:3e:27:9a:3b:65:da:f5:
        6a:cf:a2:9e:fd:9f:8c:20:15:c8:dd:05:c9:ea:b2:93:a0:dd:
        4b:5e:4f:1d:1c:0e:5a:7f:d9:cb:55:94:03:bd:af:8f:06:e0:
        e6:53:c8:f7:3f:d0:64:4c:37:1a:23:93:77:bb:a7:67:86:c9:
        55:fa:39:1d:25:dd:ac:20:c6:1c:94:64:a9:44:11:27:a8:0c:
        4d:65:90:7b:c6:3e:c8:1a:f4:50:4d:af:ee:89:2b:45:78:e5:
        a8:dd:1d:3a:50:c9:5e:ef:64:88:92:7c:6d:23:8d:9e:8d:92:
        18:79:f0:06:80:0e:3f:b2:b7:24:94:cd:74:36:0b:1f:ac:75:
        9e:64:b0:e5:ac:cd:19:91:53:c2:c5:b5:dc:61:a4:80:48:ad:
        97:a5:c8:86:37:0f:e3:b1:1d:f5:92:8f:5e:c6:cc:d0:cc:e3:
        37:22:02:f5:9e:30:fe:8e:70:1d:9d:29:67:5a:fb:90:5d:21:
        29:8d:31:80:5c:de:5f:17:e5:1c:5e:4e:b5:ac:f7:1f:bb:3b:
        e9:1d:73:7f:ae:0e:f2:b6:70:9c:73:99:2e:5e:4e:01:60:09:
        45:53:53:6b
-----BEGIN CERTIFICATE-----
MIIDnjCCAoagAwIBAgIBAzANBgkqhkiG9w0BAQsFADBPMQswCQYDVQQGEwJVSzEQ
MA4GA1UECBMHRW5nbGFuZDEMMAoGA1UEChMDVzNDMRAwDgYDVQQLEwdXZWJhcHBz
MQ4wDAYDVQQDEwUyLnJzYTAeFw0xMTA1MjUxNDI1MjRaFw0zMTA1MjAxNDI1MjRa
MFkxCzAJBgNVBAYTAlVLMRAwDgYDVQQIEwdFbmdsYW5kMQwwCgYDVQQKEwNXM0Mx
EDAOBgNVBAsTB1dlYmFwcHMxGDAWBgNVBAMTD3Jldm9rZWQuMTNhLnJzYTCCASIw
DQYJKoZIhvcNAQEBBQADggEPADCCAQoCggEBAL0UhYGavbpb7ZOOKBbBc2I3qvTH
DCOAWLTYlBmtpEK9nblifpDOEXPKPfEM+LjSgV2hmecf7HMBb/XcI6vM1Tq/IAwX
vkqq3MxC2P/G5a8pcCZR3VyfRKlmKuFfMyGA4ohMafNauIVuasALcbMxN6blYrJp
vY2C8nAEqjgANyXsG46Pu8nGlpqNY5rS6NSFGGYT0wq6iVx0xqKg2PPJ98IZSuR8
HtIkvmISn5BZzzhpBKO4LdYKsnZr0KwNETeKckbw1F98qv4JzAuzvWNdA0sHSXFL
xCB2lD/pGKNQ3S/B+n4+9Sjd9HDBNdvkB1a6LVW4UYQb1x2QGpntXnxgn0UCAwEA
AaN7MHkwCQYDVR0TBAIwADAsBglghkgBhvhCAQ0EHxYdT3BlblNTTCBHZW5lcmF0
ZWQgQ2VydGlmaWNhdGUwHQYDVR0OBBYEFH2DYCQAk1L+czevhah3vaPkx7r3MB8G
A1UdIwQYMBaAFH60gkaefKFHvojwldyIG56E7X+NMA0GCSqGSIb3DQEBCwUAA4IB
AQAWJcPZ0y0qv/yNE79c4ZzCicgJs6CS5TjALtQ9xT4nmjtl2vVqz6Ke/Z+MIBXI
3QXJ6rKToN1LXk8dHA5af9nLVZQDva+PBuDmU8j3P9BkTDcaI5N3u6dnhslV+jkd
Jd2sIMYclGSpRBEnqAxNZZB7xj7IGvRQTa/uiStFeOWo3R06UMle72SIknxtI42e
jZIYefAGgA4/srcklM10NgsfrHWeZLDlrM0ZkVPCxbXcYaSASK2XpciGNw/jsR31
ko9exszQzOM3IgL1njD+jnAdnSlnWvuQXSEpjTGAXN5fF+UcXk61rPcfuzvpHXN/
rg7ytnCcc5kuXk4BYAlFU1Nr
-----END CERTIFICATE-----
