Certificate:
    Data:
        Version: 3 (0x2)
        Serial Number: 5 (0x5)
        Signature Algorithm: sha1WithRSAEncryption
        Issuer: C=UK, ST=England, O=W3C, OU=Webapps, CN=2.rsa
        Validity
            Not Before: May 18 10:03:10 2011 GMT
            Not After : May 17 10:03:10 2012 GMT
        Subject: C=UK, ST=England, O=W3C, OU=Webapps, CN=ecdsa
        Subject Public Key Info:
            Public Key Algorithm: id-ecPublicKey
            EC Public Key:
                pub: 
                    04:49:6e:9f:2e:72:67:d3:1d:57:38:7c:59:e7:bd:
                    15:74:fa:74:72:f4:82:c0:0f:bc:da:84:54:6d:87:
                    12:59:ad:e5:15:95:6d:d1:4c:77:76:f9:c1:f0:68:
                    fb:5c:1b:7c:b0:ec:e3:3f:f9:00:91:83:49:95:dc:
                    6a:c7:09:3c:8b
                ASN1 OID: prime256v1
        X509v3 extensions:
            X509v3 Basic Constraints: 
                CA:FALSE
            Netscape Comment: 
                OpenSSL Generated Certificate
            X509v3 Subject Key Identifier: 
                08:36:F7:37:AA:E6:6D:A1:1E:75:C0:59:98:60:27:1C:B2:87:D8:58
            X509v3 Authority Key Identifier: 
                keyid:86:9F:61:5F:40:F4:25:E2:81:DA:EE:86:32:BB:DF:C0:09:15:97:46

    Signature Algorithm: sha1WithRSAEncryption
        be:08:53:e0:8c:cb:8a:ee:16:4a:7b:07:d6:a8:ef:55:1b:9a:
        b6:20:10:2e:46:5f:9f:8b:e3:29:90:92:de:42:01:a4:da:dd:
        19:e8:73:cf:68:8a:c2:3d:f2:52:0e:d5:4a:73:9f:d4:a4:d5:
        e1:2e:9f:1b:35:04:4e:74:6b:38:99:3a:8f:7e:25:61:a6:ae:
        7e:00:4d:ec:26:b5:1c:9a:45:a7:42:ea:d3:86:12:8e:06:bc:
        ec:31:b6:70:41:57:e9:14:39:c3:16:92:dc:3c:a1:6d:e9:04:
        d6:f3:6d:ec:db:30:72:5e:cc:5b:a6:45:9d:75:c0:dc:5d:5f:
        ee:47:11:3c:7c:af:d1:4d:f0:c4:7e:b0:b5:9a:0c:d9:ee:ea:
        31:93:22:84:4b:62:b0:04:ee:a3:8d:7b:5a:20:72:2c:73:17:
        df:f2:0a:51:64:0b:90:e9:65:13:05:a2:29:d9:ed:8d:7c:6e:
        cf:ed:80:5c:95:fd:10:fd:1d:78:ed:8e:70:94:8e:1e:1b:c8:
        90:84:38:c4:43:b3:4c:f2:9c:5e:e9:b2:1a:c0:19:92:f8:25:
        e1:c3:13:04:4a:86:31:a5:5a:39:b7:78:27:39:60:6a:80:1e:
        11:d8:53:ca:50:84:6e:7b:c5:d3:be:cb:a3:52:56:e3:86:2d:
        cb:a3:0f:d4
-----BEGIN CERTIFICATE-----
MIICyTCCAbGgAwIBAgIBBTANBgkqhkiG9w0BAQUFADBPMQswCQYDVQQGEwJVSzEQ
MA4GA1UECBMHRW5nbGFuZDEMMAoGA1UEChMDVzNDMRAwDgYDVQQLEwdXZWJhcHBz
MQ4wDAYDVQQDEwUyLnJzYTAeFw0xMTA1MTgxMDAzMTBaFw0xMjA1MTcxMDAzMTBa
ME8xCzAJBgNVBAYTAlVLMRAwDgYDVQQIEwdFbmdsYW5kMQwwCgYDVQQKEwNXM0Mx
EDAOBgNVBAsTB1dlYmFwcHMxDjAMBgNVBAMTBWVjZHNhMFkwEwYHKoZIzj0CAQYI
KoZIzj0DAQcDQgAESW6fLnJn0x1XOHxZ570VdPp0cvSCwA+82oRUbYcSWa3lFZVt
0Ux3dvnB8Gj7XBt8sOzjP/kAkYNJldxqxwk8i6N7MHkwCQYDVR0TBAIwADAsBglg
hkgBhvhCAQ0EHxYdT3BlblNTTCBHZW5lcmF0ZWQgQ2VydGlmaWNhdGUwHQYDVR0O
BBYEFAg29zeq5m2hHnXAWZhgJxyyh9hYMB8GA1UdIwQYMBaAFIafYV9A9CXigdru
hjK738AJFZdGMA0GCSqGSIb3DQEBBQUAA4IBAQC+CFPgjMuK7hZKewfWqO9VG5q2
IBAuRl+fi+MpkJLeQgGk2t0Z6HPPaIrCPfJSDtVKc5/UpNXhLp8bNQROdGs4mTqP
fiVhpq5+AE3sJrUcmkWnQurThhKOBrzsMbZwQVfpFDnDFpLcPKFt6QTW823s2zBy
XsxbpkWddcDcXV/uRxE8fK/RTfDEfrC1mgzZ7uoxkyKES2KwBO6jjXtaIHIscxff
8gpRZAuQ6WUTBaIp2e2NfG7P7YBclf0Q/R147Y5wlI4eG8iQhDjEQ7NM8pxe6bIa
wBmS+CXhwxMESoYxpVo5t3gnOWBqgB4R2FPKUIRue8XTvsujUlbjhi3Low/U
-----END CERTIFICATE-----
