Certificate:
    Data:
        Version: 3 (0x2)
        Serial Number: 6 (0x6)
        Signature Algorithm: sha1WithRSAEncryption
        Issuer: C=UK, ST=England, O=W3C, OU=Webapps, CN=2.rsa
        Validity
            Not Before: May 18 10:03:10 2011 GMT
            Not After : May 17 10:03:10 2012 GMT
        Subject: C=UK, ST=England, O=W3C, OU=Webapps, CN=revoked.13a.rsa
        Subject Public Key Info:
            Public Key Algorithm: rsaEncryption
            RSA Public Key: (2048 bit)
                Modulus (2048 bit):
                    00:da:f0:46:19:3a:35:cf:71:1a:11:43:21:61:69:
                    2b:90:40:e5:0c:30:98:78:e7:9c:45:69:18:48:7c:
                    f4:15:5e:c0:2a:32:4e:86:74:29:c0:e5:b3:85:95:
                    d1:3d:a7:1f:24:67:61:3d:40:d6:87:f5:8f:de:37:
                    19:57:6c:d7:f5:f5:3d:1c:d3:92:12:60:d1:0f:66:
                    33:a7:af:5a:1a:fa:19:32:9b:99:5a:83:e5:64:f3:
                    1c:09:a0:4d:59:ed:e2:f8:6b:cb:3f:dc:d8:69:5e:
                    77:2a:4a:f5:78:27:b0:17:8e:24:4e:08:db:13:6f:
                    55:74:42:8f:af:da:24:67:3f:11:d5:48:c2:2a:35:
                    b9:d4:6f:f3:0b:a8:98:61:66:cf:0d:bd:2e:e9:f1:
                    5c:f4:4e:5f:ca:5f:b5:c4:85:49:aa:c2:54:1b:37:
                    08:02:65:f4:be:d4:57:2f:13:5a:55:60:74:69:99:
                    b7:5f:02:65:7c:c4:fe:09:c3:4b:ec:ed:d0:b1:1b:
                    93:e6:6c:b4:4f:cf:78:5e:83:a9:f1:be:0e:48:d0:
                    cf:66:dd:93:dc:2c:f2:67:2d:d0:79:4d:67:73:a9:
                    3f:c8:1f:78:14:3b:4f:3b:bd:f7:b0:8c:17:c4:1d:
                    fb:d9:74:aa:cc:da:86:62:9e:89:09:e2:41:6a:44:
                    db:c3
                Exponent: 65537 (0x10001)
        X509v3 extensions:
            X509v3 Basic Constraints: 
                CA:FALSE
            Netscape Comment: 
                OpenSSL Generated Certificate
            X509v3 Subject Key Identifier: 
                77:D1:DA:43:26:0F:03:DA:C2:F8:5D:18:39:67:CF:66:97:A7:F2:83
            X509v3 Authority Key Identifier: 
                keyid:86:9F:61:5F:40:F4:25:E2:81:DA:EE:86:32:BB:DF:C0:09:15:97:46

    Signature Algorithm: sha1WithRSAEncryption
        1c:06:b0:60:4a:08:07:a7:4c:4b:68:8c:04:06:66:19:3c:73:
        a9:a7:8d:0a:23:4f:26:4e:6e:1e:b3:22:b1:f3:90:de:09:56:
        15:32:c6:a3:19:f2:28:fd:37:f2:62:9c:b3:2d:b6:01:fb:01:
        4c:70:18:13:44:a9:11:dd:13:9e:c5:c9:22:67:78:37:6c:ba:
        8f:21:42:44:03:c8:de:54:7e:00:48:82:80:80:a6:c5:3a:5d:
        53:f0:07:25:fd:bc:11:24:85:61:bc:53:70:28:89:e5:ff:2c:
        c3:71:2e:af:88:46:53:d2:d6:b1:99:12:7e:df:3e:1e:9a:c3:
        89:44:18:30:ad:93:d1:85:05:06:ce:ee:f9:96:0b:67:7f:86:
        64:0e:dd:69:7b:38:1d:35:f0:38:77:fe:e4:f7:38:76:17:92:
        fa:55:65:d7:98:68:b2:11:07:80:2b:c9:38:45:28:8f:dc:64:
        f5:60:f7:38:e0:e2:5e:3c:b6:cd:9b:1e:ae:37:19:d5:af:c4:
        25:ab:de:38:0b:41:31:84:3a:8e:a4:e3:4e:d0:8d:74:ab:99:
        0d:ee:fd:96:ff:da:c3:b5:a2:c1:26:67:8e:a2:8e:78:76:84:
        f5:cc:61:6c:e7:e2:1a:62:03:4e:dc:c9:ca:48:8e:1f:df:bd:
        18:9a:9f:df
-----BEGIN CERTIFICATE-----
MIIDnjCCAoagAwIBAgIBBjANBgkqhkiG9w0BAQUFADBPMQswCQYDVQQGEwJVSzEQ
MA4GA1UECBMHRW5nbGFuZDEMMAoGA1UEChMDVzNDMRAwDgYDVQQLEwdXZWJhcHBz
MQ4wDAYDVQQDEwUyLnJzYTAeFw0xMTA1MTgxMDAzMTBaFw0xMjA1MTcxMDAzMTBa
MFkxCzAJBgNVBAYTAlVLMRAwDgYDVQQIEwdFbmdsYW5kMQwwCgYDVQQKEwNXM0Mx
EDAOBgNVBAsTB1dlYmFwcHMxGDAWBgNVBAMTD3Jldm9rZWQuMTNhLnJzYTCCASIw
DQYJKoZIhvcNAQEBBQADggEPADCCAQoCggEBANrwRhk6Nc9xGhFDIWFpK5BA5Qww
mHjnnEVpGEh89BVewCoyToZ0KcDls4WV0T2nHyRnYT1A1of1j943GVds1/X1PRzT
khJg0Q9mM6evWhr6GTKbmVqD5WTzHAmgTVnt4vhryz/c2GledypK9XgnsBeOJE4I
2xNvVXRCj6/aJGc/EdVIwio1udRv8wuomGFmzw29LunxXPROX8pftcSFSarCVBs3
CAJl9L7UVy8TWlVgdGmZt18CZXzE/gnDS+zt0LEbk+ZstE/PeF6DqfG+DkjQz2bd
k9ws8mct0HlNZ3OpP8gfeBQ7Tzu997CMF8Qd+9l0qszahmKeiQniQWpE28MCAwEA
AaN7MHkwCQYDVR0TBAIwADAsBglghkgBhvhCAQ0EHxYdT3BlblNTTCBHZW5lcmF0
ZWQgQ2VydGlmaWNhdGUwHQYDVR0OBBYEFHfR2kMmDwPawvhdGDlnz2aXp/KDMB8G
A1UdIwQYMBaAFIafYV9A9CXigdruhjK738AJFZdGMA0GCSqGSIb3DQEBBQUAA4IB
AQAcBrBgSggHp0xLaIwEBmYZPHOpp40KI08mTm4esyKx85DeCVYVMsajGfIo/Tfy
YpyzLbYB+wFMcBgTRKkR3ROexckiZ3g3bLqPIUJEA8jeVH4ASIKAgKbFOl1T8Acl
/bwRJIVhvFNwKInl/yzDcS6viEZT0taxmRJ+3z4emsOJRBgwrZPRhQUGzu75lgtn
f4ZkDt1pezgdNfA4d/7k9zh2F5L6VWXXmGiyEQeAK8k4RSiP3GT1YPc44OJePLbN
mx6uNxnVr8Qlq944C0ExhDqOpONO0I10q5kN7v2W/9rDtaLBJmeOoo54doT1zGFs
5+IaYgNO3MnKSI4f370Ymp/f
-----END CERTIFICATE-----
