Certificate:
    Data:
        Version: 3 (0x2)
        Serial Number: 7 (0x7)
        Signature Algorithm: sha1WithRSAEncryption
        Issuer: C=UK, ST=England, O=W3C, OU=Webapps, CN=2.rsa
        Validity
            Not Before: May 18 10:03:12 2011 GMT
            Not After : May 17 10:03:12 2012 GMT
        Subject: C=UK, ST=England, O=W3C, OU=Webapps, CN=revoked.13b.rsa
        Subject Public Key Info:
            Public Key Algorithm: rsaEncryption
            RSA Public Key: (2048 bit)
                Modulus (2048 bit):
                    00:dc:29:00:a2:49:c2:2f:e8:20:d0:95:96:3d:1d:
                    1c:f5:5d:ef:b2:b7:51:22:2d:12:12:b0:b0:6b:cc:
                    24:ff:67:d1:36:7c:a9:57:86:44:b4:0f:19:52:3a:
                    3b:53:64:6f:bf:35:3f:c4:e2:6e:e3:59:6b:ba:d7:
                    b3:0e:26:93:a9:51:51:ea:0b:ec:f7:9c:3b:a9:53:
                    0d:fc:ec:af:63:37:31:1b:ff:2f:fd:ba:ed:89:8c:
                    7b:de:78:b8:79:09:8a:07:dd:d7:25:b4:29:94:98:
                    ac:72:2f:b4:e8:11:56:01:61:6b:1b:f0:3c:88:75:
                    ee:64:ce:a1:b4:69:df:7a:2d:96:f8:10:55:ab:b2:
                    48:12:10:4c:71:b2:63:9d:ad:26:da:a3:73:59:08:
                    5b:8e:38:ad:87:80:82:37:db:eb:0f:99:e6:19:d1:
                    c7:a9:ef:3c:d0:f1:be:87:eb:2d:8f:60:cc:71:3a:
                    02:9d:64:0a:6b:04:7f:16:3b:d1:41:98:52:68:16:
                    b7:f3:19:a1:eb:12:31:26:9a:3b:60:23:90:79:9b:
                    b1:55:15:24:29:be:72:34:dd:ad:b7:9f:2b:d4:f4:
                    13:bb:c5:0f:77:cc:86:ae:01:a2:0e:86:7f:b9:76:
                    c5:7b:82:c3:33:dc:80:ee:79:d6:78:d4:ae:8b:46:
                    46:01
                Exponent: 65537 (0x10001)
        X509v3 extensions:
            X509v3 Basic Constraints: 
                CA:FALSE
            Netscape Comment: 
                OpenSSL Generated Certificate
            X509v3 Subject Key Identifier: 
                15:F2:38:24:66:1A:C9:BC:5F:0A:BB:C6:1E:ED:88:3D:1D:96:99:41
            X509v3 Authority Key Identifier: 
                keyid:86:9F:61:5F:40:F4:25:E2:81:DA:EE:86:32:BB:DF:C0:09:15:97:46

    Signature Algorithm: sha1WithRSAEncryption
        bb:50:37:24:71:79:cf:d5:e9:0d:3f:d0:af:7b:0f:c6:4a:91:
        37:3b:56:af:7c:03:54:12:5c:71:a6:6d:90:01:c8:fe:3c:bc:
        dd:62:39:eb:9a:78:14:fa:c8:47:3e:0c:9b:a5:09:05:ff:97:
        c4:79:36:8a:af:ce:77:78:ee:93:20:1a:bb:b0:bb:fb:89:99:
        f2:f5:8b:b0:26:07:7c:55:e9:7c:db:3e:a4:16:ee:ad:f1:f9:
        28:31:c2:c3:25:e1:4c:35:4a:c7:43:2a:61:ae:b3:3d:98:c7:
        fb:79:e5:99:58:a1:ea:1c:6a:2f:46:52:73:48:8c:bc:c7:ce:
        90:47:af:bb:4f:3e:f9:8c:2e:a8:f4:dc:3f:06:5b:e2:1b:0e:
        45:d0:f2:31:55:14:0c:8f:5d:ab:0b:c2:9b:69:da:2a:93:6a:
        00:f8:56:83:db:38:40:01:b9:24:c7:9f:f2:14:5c:9c:c0:fd:
        f0:e8:2d:79:b3:70:2a:9f:8c:de:b9:d1:1e:07:d0:51:c7:13:
        15:af:de:73:e6:27:43:42:4a:78:bd:6d:3f:8a:b5:c8:a6:7c:
        49:31:b4:77:02:66:7a:4b:f5:49:1f:c6:89:c1:ba:4e:1f:57:
        b2:f5:35:b5:65:03:e5:32:60:30:76:2c:53:46:83:3b:ce:1d:
        73:6b:96:ff
-----BEGIN CERTIFICATE-----
MIIDnjCCAoagAwIBAgIBBzANBgkqhkiG9w0BAQUFADBPMQswCQYDVQQGEwJVSzEQ
MA4GA1UECBMHRW5nbGFuZDEMMAoGA1UEChMDVzNDMRAwDgYDVQQLEwdXZWJhcHBz
MQ4wDAYDVQQDEwUyLnJzYTAeFw0xMTA1MTgxMDAzMTJaFw0xMjA1MTcxMDAzMTJa
MFkxCzAJBgNVBAYTAlVLMRAwDgYDVQQIEwdFbmdsYW5kMQwwCgYDVQQKEwNXM0Mx
EDAOBgNVBAsTB1dlYmFwcHMxGDAWBgNVBAMTD3Jldm9rZWQuMTNiLnJzYTCCASIw
DQYJKoZIhvcNAQEBBQADggEPADCCAQoCggEBANwpAKJJwi/oINCVlj0dHPVd77K3
USItEhKwsGvMJP9n0TZ8qVeGRLQPGVI6O1Nkb781P8TibuNZa7rXsw4mk6lRUeoL
7PecO6lTDfzsr2M3MRv/L/267YmMe954uHkJigfd1yW0KZSYrHIvtOgRVgFhaxvw
PIh17mTOobRp33otlvgQVauySBIQTHGyY52tJtqjc1kIW444rYeAgjfb6w+Z5hnR
x6nvPNDxvofrLY9gzHE6Ap1kCmsEfxY70UGYUmgWt/MZoesSMSaaO2AjkHmbsVUV
JCm+cjTdrbefK9T0E7vFD3fMhq4Bog6Gf7l2xXuCwzPcgO551njUrotGRgECAwEA
AaN7MHkwCQYDVR0TBAIwADAsBglghkgBhvhCAQ0EHxYdT3BlblNTTCBHZW5lcmF0
ZWQgQ2VydGlmaWNhdGUwHQYDVR0OBBYEFBXyOCRmGsm8Xwq7xh7tiD0dlplBMB8G
A1UdIwQYMBaAFIafYV9A9CXigdruhjK738AJFZdGMA0GCSqGSIb3DQEBBQUAA4IB
AQC7UDckcXnP1ekNP9Cvew/GSpE3O1avfANUElxxpm2QAcj+PLzdYjnrmngU+shH
PgybpQkF/5fEeTaKr853eO6TIBq7sLv7iZny9YuwJgd8Vel82z6kFu6t8fkoMcLD
JeFMNUrHQyphrrM9mMf7eeWZWKHqHGovRlJzSIy8x86QR6+7Tz75jC6o9Nw/Blvi
Gw5F0PIxVRQMj12rC8Kbadoqk2oA+FaD2zhAAbkkx5/yFFycwP3w6C15s3Aqn4ze
udEeB9BRxxMVr95z5idDQkp4vW0/irXIpnxJMbR3AmZ6S/VJH8aJwbpOH1ey9TW1
ZQPlMmAwdixTRoM7zh1za5b/
-----END CERTIFICATE-----
