Certificate:
    Data:
        Version: 3 (0x2)
        Serial Number: 1 (0x1)
        Signature Algorithm: sha256WithRSAEncryption
        Issuer: CN=root, C=UK, ST=England, O=W3C, OU=Webapps
        Validity
            Not Before: May 25 14:25:23 2011 GMT
            Not After : May 20 14:25:23 2031 GMT
        Subject: C=UK, ST=England, O=W3C, OU=Webapps, CN=2.rsa
        Subject Public Key Info:
            Public Key Algorithm: rsaEncryption
            RSA Public Key: (2048 bit)
                Modulus (2048 bit):
                    00:d0:b2:08:cd:15:9a:f3:df:db:58:6d:3a:df:65:
                    64:3f:97:04:93:94:35:97:4e:f1:60:c2:90:aa:1d:
                    60:95:9d:ab:58:57:10:b6:d2:bc:c1:06:a0:6b:d4:
                    83:9f:d7:3b:b4:01:98:f8:53:84:22:11:c5:c8:26:
                    ea:a5:44:9a:4f:a5:67:92:d5:1b:41:56:a6:3e:e1:
                    1d:0f:37:cc:a4:2a:70:2e:bf:da:62:08:ca:26:d3:
                    9b:0b:65:7e:16:91:08:63:99:fd:f2:63:b5:c9:c0:
                    81:d1:03:a2:8b:55:ac:77:92:1c:dd:99:17:60:82:
                    a3:54:d9:b0:16:78:2d:3f:ed:87:7b:c0:9d:bf:61:
                    e5:76:1d:ea:26:60:2c:60:37:d4:97:e9:99:89:6c:
                    d8:64:95:dc:12:4c:1f:89:0f:33:0b:2a:1a:02:b6:
                    76:61:5d:71:46:4e:eb:e4:0e:fb:71:55:6e:0d:09:
                    22:b9:11:e4:8d:e5:05:47:77:57:de:d6:d7:96:a6:
                    5b:4e:41:b7:6c:d7:d4:7c:fd:06:78:de:eb:be:08:
                    b5:91:4e:c9:81:5e:a8:ef:d8:15:cf:3c:49:f0:4c:
                    db:89:7d:08:65:89:f9:d3:b5:11:0c:e3:ac:be:5e:
                    58:20:ee:95:4c:66:bb:7a:37:a7:d6:42:7a:9a:a4:
                    34:3d
                Exponent: 65537 (0x10001)
        X509v3 extensions:
            X509v3 Subject Key Identifier: 
                7E:B4:82:46:9E:7C:A1:47:BE:88:F0:95:DC:88:1B:9E:84:ED:7F:8D
            X509v3 Authority Key Identifier: 
                keyid:03:1B:43:BB:A2:95:39:66:E4:2F:D9:C4:BE:94:38:9C:1D:A2:DE:AA
                DirName:/CN=root/C=UK/ST=England/O=W3C/OU=Webapps
                serial:C4:63:62:4A:C4:C7:98:5D

            X509v3 Basic Constraints: 
                CA:TRUE
    Signature Algorithm: sha256WithRSAEncryption
        2f:cd:e1:0d:26:1f:fc:47:4d:99:8b:5c:05:d3:7a:1c:81:a0:
        8d:31:5e:f9:2d:0e:1b:8f:92:9b:b8:2f:55:1e:50:3d:b5:a5:
        5f:cc:1a:55:a4:92:af:09:d2:58:9e:90:05:20:9f:dc:06:9b:
        c4:4f:7f:ed:8d:6d:c3:57:6d:8f:7a:40:ad:aa:80:24:ff:0d:
        b6:a3:f0:0f:28:88:a7:c9:1e:3d:29:ad:9a:d3:eb:b3:e0:fa:
        c3:3e:a6:a5:fc:37:17:9a:43:64:80:09:61:7c:9a:e8:60:ae:
        49:66:fd:6a:6d:df:ca:a6:c4:18:b0:4e:49:17:b7:8b:b4:da:
        bf:c2:96:36:bb:f5:06:e1:a1:d3:2b:51:8a:93:17:3d:fd:c3:
        34:d3:f5:ba:91:6a:32:2d:3e:6d:de:88:dc:c5:7c:7b:3f:98:
        5f:3e:75:99:1f:9c:80:72:84:5d:b9:b6:a4:5e:5e:93:9e:50:
        28:a1:d7:ad:1d:a3:fd:58:d2:a3:71:ab:fe:aa:ba:c3:a7:d3:
        25:60:05:71:bb:25:79:4f:e0:e4:5a:e1:4a:46:98:da:e1:f0:
        68:15:0f:75:ad:b8:f5:86:48:2e:a8:36:d6:af:23:59:5b:f8:
        ae:a8:bf:13:c2:5f:97:ba:87:c4:9f:0f:c7:12:03:7a:44:49:
        f9:de:fc:c7
-----BEGIN CERTIFICATE-----
MIIDyTCCArGgAwIBAgIBATANBgkqhkiG9w0BAQsFADBOMQ0wCwYDVQQDEwRyb290
MQswCQYDVQQGEwJVSzEQMA4GA1UECBMHRW5nbGFuZDEMMAoGA1UEChMDVzNDMRAw
DgYDVQQLEwdXZWJhcHBzMB4XDTExMDUyNTE0MjUyM1oXDTMxMDUyMDE0MjUyM1ow
TzELMAkGA1UEBhMCVUsxEDAOBgNVBAgTB0VuZ2xhbmQxDDAKBgNVBAoTA1czQzEQ
MA4GA1UECxMHV2ViYXBwczEOMAwGA1UEAxMFMi5yc2EwggEiMA0GCSqGSIb3DQEB
AQUAA4IBDwAwggEKAoIBAQDQsgjNFZrz39tYbTrfZWQ/lwSTlDWXTvFgwpCqHWCV
natYVxC20rzBBqBr1IOf1zu0AZj4U4QiEcXIJuqlRJpPpWeS1RtBVqY+4R0PN8yk
KnAuv9piCMom05sLZX4WkQhjmf3yY7XJwIHRA6KLVax3khzdmRdggqNU2bAWeC0/
7Yd7wJ2/YeV2HeomYCxgN9SX6ZmJbNhkldwSTB+JDzMLKhoCtnZhXXFGTuvkDvtx
VW4NCSK5EeSN5QVHd1fe1teWpltOQbds19R8/QZ43uu+CLWRTsmBXqjv2BXPPEnw
TNuJfQhlifnTtREM46y+Xlgg7pVMZrt6N6fWQnqapDQ9AgMBAAGjgbAwga0wHQYD
VR0OBBYEFH60gkaefKFHvojwldyIG56E7X+NMH4GA1UdIwR3MHWAFAMbQ7uilTlm
5C/ZxL6UOJwdot6qoVKkUDBOMQ0wCwYDVQQDEwRyb290MQswCQYDVQQGEwJVSzEQ
MA4GA1UECBMHRW5nbGFuZDEMMAoGA1UEChMDVzNDMRAwDgYDVQQLEwdXZWJhcHBz
ggkAxGNiSsTHmF0wDAYDVR0TBAUwAwEB/zANBgkqhkiG9w0BAQsFAAOCAQEAL83h
DSYf/EdNmYtcBdN6HIGgjTFe+S0OG4+Sm7gvVR5QPbWlX8waVaSSrwnSWJ6QBSCf
3AabxE9/7Y1tw1dtj3pAraqAJP8NtqPwDyiIp8kePSmtmtPrs+D6wz6mpfw3F5pD
ZIAJYXya6GCuSWb9am3fyqbEGLBOSRe3i7Tav8KWNrv1BuGh0ytRipMXPf3DNNP1
upFqMi0+bd6I3MV8ez+YXz51mR+cgHKEXbm2pF5ek55QKKHXrR2j/VjSo3Gr/qq6
w6fTJWAFcbsleU/g5FrhSkaY2uHwaBUPda249YZILqg21q8jWVv4rqi/E8Jfl7qH
xJ8PxxIDekRJ+d78xw==
-----END CERTIFICATE-----
