Certificate:
    Data:
        Version: 3 (0x2)
        Serial Number: 2 (0x2)
        Signature Algorithm: sha256WithRSAEncryption
        Issuer: C=UK, ST=England, O=W3C, OU=Webapps, CN=2.rsa
        Validity
            Not Before: May 25 14:25:24 2011 GMT
            Not After : May 20 14:25:24 2031 GMT
        Subject: C=UK, ST=England, O=W3C, OU=Webapps, CN=3.rsa
        Subject Public Key Info:
            Public Key Algorithm: rsaEncryption
            RSA Public Key: (2048 bit)
                Modulus (2048 bit):
                    00:b6:09:01:77:d5:76:27:5a:3e:13:3b:26:be:4a:
                    3c:12:28:93:3e:d1:b0:9b:76:58:91:1f:28:c4:58:
                    de:e2:1d:73:e9:c9:49:a8:2c:f6:d1:b7:5b:8d:36:
                    f9:7e:56:ea:fe:c3:ed:d9:c9:f4:6f:d6:18:f5:c6:
                    2e:00:b2:4d:ab:cc:9d:b4:7b:58:7e:b6:a5:b4:aa:
                    1d:aa:d3:63:da:36:48:01:8a:db:52:4d:84:5e:c3:
                    63:21:25:32:25:a9:83:1c:c2:b1:cf:6b:2c:52:c7:
                    10:cc:f6:2e:94:52:f1:f9:97:d2:a5:a6:5d:38:82:
                    95:e0:28:4e:99:76:70:5a:35:b8:4d:a1:23:87:c0:
                    e4:02:f4:bf:aa:44:ce:5b:ed:82:2a:4f:1b:ff:f4:
                    3e:56:6c:61:0b:27:8b:82:aa:a3:dc:05:fd:84:ed:
                    fe:64:1e:b6:cd:41:19:7a:47:ac:b1:03:53:d9:9b:
                    9d:80:cd:0c:da:93:80:70:08:9e:06:31:22:ee:b5:
                    e3:e7:dc:3c:f4:c4:4c:17:7a:de:92:9f:54:79:73:
                    26:95:30:4f:41:b0:c3:fb:20:62:fd:b4:21:0c:e6:
                    0b:af:e9:ce:44:8d:80:94:1a:2c:2a:ca:82:6f:df:
                    90:b6:da:66:93:85:e9:18:95:ad:ab:30:df:c4:24:
                    47:03
                Exponent: 65537 (0x10001)
        X509v3 extensions:
            X509v3 Basic Constraints: 
                CA:FALSE
            Netscape Comment: 
                OpenSSL Generated Certificate
            X509v3 Subject Key Identifier: 
                08:FD:D6:71:17:BA:99:B8:12:3E:E7:A2:8A:C8:5A:DC:BC:DD:E1:62
            X509v3 Authority Key Identifier: 
                keyid:7E:B4:82:46:9E:7C:A1:47:BE:88:F0:95:DC:88:1B:9E:84:ED:7F:8D

    Signature Algorithm: sha256WithRSAEncryption
        10:b9:70:30:c4:e1:28:0f:cf:5c:35:39:4a:ec:04:9f:9d:dd:
        c7:94:ff:60:0a:9e:ee:62:61:f9:a4:83:ca:65:0c:06:16:e7:
        0f:20:67:3f:a1:6b:e2:a5:3b:8b:c9:b7:09:63:04:5a:81:13:
        39:1f:bd:a4:46:22:a4:af:de:95:4a:10:65:8e:d5:39:7d:5f:
        90:a7:57:a0:63:eb:9c:76:d5:86:e4:6c:52:5a:74:46:a4:a0:
        d5:85:a4:09:2e:19:06:2f:55:a7:f4:77:a4:c2:18:90:39:ac:
        95:de:3d:6e:53:87:ab:8d:e2:f9:87:c9:92:ea:c2:06:46:f5:
        59:e3:49:15:91:95:8c:ad:11:76:10:cf:17:97:c2:db:37:7b:
        6d:81:36:bf:43:bf:89:2d:44:21:9e:f0:53:54:d9:bd:96:71:
        9a:aa:3e:60:37:de:64:b4:16:7f:7b:05:da:a1:00:2e:ca:29:
        9a:e0:2d:a2:92:3d:c3:45:8d:22:49:66:33:2b:21:fe:6f:fe:
        35:a6:e1:f7:65:f8:6c:6f:a6:b9:07:b2:e3:fd:1d:21:ee:0c:
        20:8f:b5:cf:18:cc:61:4c:fa:9a:6d:4b:ca:47:61:38:89:3f:
        59:19:8c:51:9d:82:e6:b3:4f:c8:d8:04:5c:3e:56:4c:f9:6a:
        31:a5:ff:39
-----BEGIN CERTIFICATE-----
MIIDlDCCAnygAwIBAgIBAjANBgkqhkiG9w0BAQsFADBPMQswCQYDVQQGEwJVSzEQ
MA4GA1UECBMHRW5nbGFuZDEMMAoGA1UEChMDVzNDMRAwDgYDVQQLEwdXZWJhcHBz
MQ4wDAYDVQQDEwUyLnJzYTAeFw0xMTA1MjUxNDI1MjRaFw0zMTA1MjAxNDI1MjRa
ME8xCzAJBgNVBAYTAlVLMRAwDgYDVQQIEwdFbmdsYW5kMQwwCgYDVQQKEwNXM0Mx
EDAOBgNVBAsTB1dlYmFwcHMxDjAMBgNVBAMTBTMucnNhMIIBIjANBgkqhkiG9w0B
AQEFAAOCAQ8AMIIBCgKCAQEAtgkBd9V2J1o+Ezsmvko8EiiTPtGwm3ZYkR8oxFje
4h1z6clJqCz20bdbjTb5flbq/sPt2cn0b9YY9cYuALJNq8ydtHtYfraltKodqtNj
2jZIAYrbUk2EXsNjISUyJamDHMKxz2ssUscQzPYulFLx+ZfSpaZdOIKV4ChOmXZw
WjW4TaEjh8DkAvS/qkTOW+2CKk8b//Q+VmxhCyeLgqqj3AX9hO3+ZB62zUEZekes
sQNT2ZudgM0M2pOAcAieBjEi7rXj59w89MRMF3rekp9UeXMmlTBPQbDD+yBi/bQh
DOYLr+nORI2AlBosKsqCb9+Qttpmk4XpGJWtqzDfxCRHAwIDAQABo3sweTAJBgNV
HRMEAjAAMCwGCWCGSAGG+EIBDQQfFh1PcGVuU1NMIEdlbmVyYXRlZCBDZXJ0aWZp
Y2F0ZTAdBgNVHQ4EFgQUCP3WcRe6mbgSPueiisha3Lzd4WIwHwYDVR0jBBgwFoAU
frSCRp58oUe+iPCV3IgbnoTtf40wDQYJKoZIhvcNAQELBQADggEBABC5cDDE4SgP
z1w1OUrsBJ+d3ceU/2AKnu5iYfmkg8plDAYW5w8gZz+ha+KlO4vJtwljBFqBEzkf
vaRGIqSv3pVKEGWO1Tl9X5CnV6Bj65x21YbkbFJadEakoNWFpAkuGQYvVaf0d6TC
GJA5rJXePW5Th6uN4vmHyZLqwgZG9VnjSRWRlYytEXYQzxeXwts3e22BNr9Dv4kt
RCGe8FNU2b2WcZqqPmA33mS0Fn97BdqhAC7KKZrgLaKSPcNFjSJJZjMrIf5v/jWm
4fdl+GxvprkHsuP9HSHuDCCPtc8YzGFM+pptS8pHYTiJP1kZjFGdguazT8jYBFw+
Vkz5ajGl/zk=
-----END CERTIFICATE-----
