Certificate:
    Data:
        Version: 3 (0x2)
        Serial Number: 4 (0x4)
        Signature Algorithm: sha256WithRSAEncryption
        Issuer: C=UK, ST=England, O=W3C, OU=Webapps, CN=2.rsa
        Validity
            Not Before: May 25 14:25:25 2011 GMT
            Not After : May 20 14:25:25 2031 GMT
        Subject: C=UK, ST=England, O=W3C, OU=Webapps, CN=revoked.13b.rsa
        Subject Public Key Info:
            Public Key Algorithm: rsaEncryption
            RSA Public Key: (2048 bit)
                Modulus (2048 bit):
                    00:ab:f4:28:87:dd:f8:61:60:79:c6:41:ab:a4:26:
                    73:46:85:66:a5:09:88:7d:d7:62:b4:48:18:df:54:
                    29:87:7c:01:a2:b9:1d:02:8e:ce:42:fb:0a:b3:82:
                    80:4d:61:f7:f6:05:13:87:b1:2f:4d:a4:d3:76:37:
                    2b:0c:6c:c9:dd:9e:5a:48:ef:7c:0a:62:12:1c:78:
                    0d:9f:1d:e3:01:7c:e3:e8:89:b6:8b:85:52:b1:c3:
                    eb:58:6d:28:2c:bf:95:33:a7:78:1c:4f:d0:82:10:
                    08:0e:ad:7c:54:b1:96:e1:4d:a7:f9:dc:2f:ad:4c:
                    d4:ec:03:db:e2:f8:d3:ef:f7:a7:c7:f7:e7:80:29:
                    f2:eb:a7:72:ea:2a:d2:80:b0:d6:57:68:e6:c5:84:
                    f9:43:92:86:b2:03:f3:d5:9a:bd:dd:b1:b5:c0:68:
                    ff:95:3f:e8:88:9c:29:d7:07:1b:ee:f4:cf:b8:47:
                    40:81:30:15:34:3e:58:e4:b4:a6:76:47:ac:ee:da:
                    3a:2d:28:0e:72:f6:9d:f4:69:4f:c6:a8:10:00:75:
                    b0:53:b1:6b:00:84:d6:3a:1c:05:74:d1:ee:a6:23:
                    f0:0a:37:b3:fb:3e:35:7f:39:97:31:6b:83:ec:1d:
                    33:94:35:1c:1b:66:47:00:d6:56:0f:92:ed:89:f8:
                    66:7b
                Exponent: 65537 (0x10001)
        X509v3 extensions:
            X509v3 Basic Constraints: 
                CA:FALSE
            Netscape Comment: 
                OpenSSL Generated Certificate
            X509v3 Subject Key Identifier: 
                CE:4F:E6:34:20:F6:CB:07:B6:1B:05:C5:B7:93:7D:37:E6:81:1B:63
            X509v3 Authority Key Identifier: 
                keyid:7E:B4:82:46:9E:7C:A1:47:BE:88:F0:95:DC:88:1B:9E:84:ED:7F:8D

    Signature Algorithm: sha256WithRSAEncryption
        6a:89:0a:23:21:02:ed:6c:a1:e7:da:6b:61:76:c3:36:9e:4e:
        fc:49:cc:eb:87:63:eb:13:27:22:3f:93:b8:b0:60:48:e7:14:
        0a:a4:3e:2c:cf:16:97:23:02:36:bd:0e:fe:5d:fe:ef:c8:cc:
        e0:a7:f5:3f:6e:95:7a:9c:ad:21:e9:4a:c9:85:f7:48:a4:5c:
        b1:3d:e1:b6:95:7e:54:95:e0:d9:84:5f:b3:69:f1:dd:85:3d:
        16:64:5d:56:bc:2c:9d:9a:f5:68:8c:7a:58:a9:26:5a:0c:35:
        f0:50:19:43:dd:ab:8a:a8:73:36:5b:71:e1:69:a4:c5:cb:78:
        d6:fe:9b:66:03:ad:4a:11:ce:0d:98:20:c8:4a:1d:d4:15:07:
        ab:1b:76:aa:c9:f2:55:bc:7a:89:63:35:98:cb:5b:f8:7f:2a:
        5a:2f:96:72:ed:48:1c:2d:a3:c4:2d:21:06:14:12:11:7d:88:
        76:ce:e5:e5:3b:4d:0b:97:3c:3e:12:58:10:82:2c:a0:b2:c6:
        db:2c:76:87:0c:07:e0:c2:63:19:05:70:c8:21:e1:19:47:ce:
        1d:4e:7b:c3:f1:bd:06:7e:f4:0c:af:85:6f:25:75:c6:df:23:
        61:f3:24:b5:e5:22:f4:ea:c0:b5:a1:e6:5f:14:91:00:30:df:
        5c:3a:42:2f
-----BEGIN CERTIFICATE-----
MIIDnjCCAoagAwIBAgIBBDANBgkqhkiG9w0BAQsFADBPMQswCQYDVQQGEwJVSzEQ
MA4GA1UECBMHRW5nbGFuZDEMMAoGA1UEChMDVzNDMRAwDgYDVQQLEwdXZWJhcHBz
MQ4wDAYDVQQDEwUyLnJzYTAeFw0xMTA1MjUxNDI1MjVaFw0zMTA1MjAxNDI1MjVa
MFkxCzAJBgNVBAYTAlVLMRAwDgYDVQQIEwdFbmdsYW5kMQwwCgYDVQQKEwNXM0Mx
EDAOBgNVBAsTB1dlYmFwcHMxGDAWBgNVBAMTD3Jldm9rZWQuMTNiLnJzYTCCASIw
DQYJKoZIhvcNAQEBBQADggEPADCCAQoCggEBAKv0KIfd+GFgecZBq6Qmc0aFZqUJ
iH3XYrRIGN9UKYd8AaK5HQKOzkL7CrOCgE1h9/YFE4exL02k03Y3Kwxsyd2eWkjv
fApiEhx4DZ8d4wF84+iJtouFUrHD61htKCy/lTOneBxP0IIQCA6tfFSxluFNp/nc
L61M1OwD2+L40+/3p8f354Ap8uuncuoq0oCw1ldo5sWE+UOShrID89Wavd2xtcBo
/5U/6IicKdcHG+70z7hHQIEwFTQ+WOS0pnZHrO7aOi0oDnL2nfRpT8aoEAB1sFOx
awCE1jocBXTR7qYj8Ao3s/s+NX85lzFrg+wdM5Q1HBtmRwDWVg+S7Yn4ZnsCAwEA
AaN7MHkwCQYDVR0TBAIwADAsBglghkgBhvhCAQ0EHxYdT3BlblNTTCBHZW5lcmF0
ZWQgQ2VydGlmaWNhdGUwHQYDVR0OBBYEFM5P5jQg9ssHthsFxbeTfTfmgRtjMB8G
A1UdIwQYMBaAFH60gkaefKFHvojwldyIG56E7X+NMA0GCSqGSIb3DQEBCwUAA4IB
AQBqiQojIQLtbKHn2mthdsM2nk78Sczrh2PrEyciP5O4sGBI5xQKpD4szxaXIwI2
vQ7+Xf7vyMzgp/U/bpV6nK0h6UrJhfdIpFyxPeG2lX5UleDZhF+zafHdhT0WZF1W
vCydmvVojHpYqSZaDDXwUBlD3auKqHM2W3HhaaTFy3jW/ptmA61KEc4NmCDISh3U
FQerG3aqyfJVvHqJYzWYy1v4fypaL5Zy7UgcLaPELSEGFBIRfYh2zuXlO00Llzw+
ElgQgiygssbbLHaHDAfgwmMZBXDIIeEZR84dTnvD8b0GfvQMr4VvJXXG3yNh8yS1
5SL06sC1oeZfFJEAMN9cOkIv
-----END CERTIFICATE-----
