Certificate:
    Data:
        Version: 3 (0x2)
        Serial Number: 6 (0x6)
        Signature Algorithm: sha1WithRSAEncryption
        Issuer: C=NO, ST=Oslo, O=World Wide Web Consortium, OU=w3c-widgets-digsig-testsuite second level certificate, CN=http://www.w3.org//emailAddress=stuartk@opera.com
        Validity
            Not Before: Aug 26 09:15:46 2010 GMT
            Not After : Aug 23 09:15:46 2020 GMT
        Subject: C=NO, ST=Oslo, O=World Wide Web Consortium, OU=w3c-widgets-digsig-testsuite revoked certificate, CN=http://www.w3.org//emailAddress=stuartk@opera.com
        Subject Public Key Info:
            Public Key Algorithm: rsaEncryption
            RSA Public Key: (2048 bit)
                Modulus (2048 bit):
                    00:d6:29:15:66:c6:e9:7e:49:dc:54:55:97:4d:09:
                    f3:92:1a:2e:4d:1e:f2:f9:eb:03:ec:d1:c8:8c:65:
                    b5:50:c0:03:f2:0d:4a:65:12:b8:bd:0e:8e:6c:3d:
                    47:13:78:7d:26:ca:b4:4d:9e:d3:b1:62:b1:88:3b:
                    74:0b:ac:1b:98:e8:28:20:e9:e9:58:ae:94:3a:c9:
                    21:00:fc:98:ce:65:2a:0c:d0:be:7a:90:0a:47:4c:
                    0a:3d:d1:3a:d0:6c:28:4c:a2:7f:c7:12:57:2b:36:
                    71:bc:00:09:aa:83:e1:a6:fc:98:e3:93:46:02:bf:
                    91:03:8d:30:f7:f7:b7:10:3d:81:b8:dc:3b:71:a3:
                    f7:db:ce:57:c8:06:36:eb:6c:59:03:11:f5:3b:3e:
                    36:0d:da:46:01:3d:a9:38:44:16:26:9d:6b:33:50:
                    9f:fd:ef:ef:02:a0:42:2f:7e:a0:87:aa:9b:ed:45:
                    19:a5:c9:4a:cc:e7:d4:0f:c2:8a:87:14:25:e1:04:
                    3f:c3:03:7c:90:78:05:c0:24:e8:e1:05:49:b6:48:
                    74:a5:a7:2e:d7:09:ee:fc:bd:b8:08:66:cf:d6:c9:
                    3e:e4:39:cb:d3:d3:76:37:93:7c:23:69:8a:06:52:
                    de:a3:c0:69:f0:53:74:eb:1c:1b:b8:8a:13:dc:c5:
                    89:a1
                Exponent: 65537 (0x10001)
        X509v3 extensions:
            X509v3 Basic Constraints: 
                CA:FALSE
            Netscape Cert Type: 
                SSL Client, S/MIME, Object Signing
            X509v3 Key Usage: 
                Digital Signature, Non Repudiation, Key Encipherment
            Netscape Comment: 
                w3c-widgets-digsig-testsuite revoked certificate
            X509v3 Subject Key Identifier: 
                28:BF:44:45:75:D9:A7:82:1C:FB:40:DF:2D:BF:60:C6:64:BB:65:CE
            X509v3 Authority Key Identifier: 
                keyid:FF:6A:B4:F1:CB:F7:7E:C4:C1:26:C3:61:8D:BB:18:5E:EF:C2:26:76
                DirName:/C=NO/ST=Oslo/L=Oslo/O=World Wide Web Consortium/OU=w3c-widgets-digsig-testsuite root certificate/CN=http://www.w3.org//emailAddress=stuartk@opera.com
                serial:01

    Signature Algorithm: sha1WithRSAEncryption
        37:4f:d0:20:1c:a0:7a:98:ca:23:7e:79:3c:90:e7:aa:9f:fe:
        45:31:6f:3e:c7:34:cf:d8:a6:07:6f:91:c9:07:10:2c:d2:40:
        97:7c:5b:3d:e9:54:35:7d:f3:e4:22:01:dd:c5:e9:bb:22:6a:
        2d:86:45:1a:ff:ac:71:e3:67:61:00:f3:98:7b:dd:52:e4:5b:
        32:57:b4:1d:ad:25:c7:79:88:e1:53:b5:ad:2f:19:50:6f:b0:
        7a:a1:e4:07:36:a7:b0:48:aa:12:19:6d:70:61:4c:ee:99:14:
        3b:81:b5:a0:82:25:df:f3:d4:cc:70:6c:39:a0:63:b5:de:30:
        00:c5:53:a0:4c:53:a7:e0:c4:e9:1c:c0:68:57:e3:7d:c0:99:
        ca:09:f9:05:0d:5a:40:0b:16:b7:27:ad:c9:83:d6:38:b0:db:
        d8:e6:f8:4a:67:ba:a4:02:97:bb:b5:1c:ea:dd:5e:b3:db:46:
        9e:af:64:98:78:5a:63:6e:05:ca:84:82:b1:3b:40:15:bc:d7:
        d7:02:6e:33:a7:4b:41:a0:81:03:6b:f8:c1:bf:19:c6:1f:68:
        4b:91:b2:aa:eb:7d:fb:80:0d:9a:e6:d0:b8:bf:38:bd:05:52:
        f1:66:36:54:02:28:42:39:22:5f:13:75:0c:be:6c:26:42:65:
        a5:d2:19:3e
-----BEGIN CERTIFICATE-----
MIIFfTCCBGWgAwIBAgIBBjANBgkqhkiG9w0BAQUFADCBvzELMAkGA1UEBhMCTk8x
DTALBgNVBAgTBE9zbG8xIjAgBgNVBAoTGVdvcmxkIFdpZGUgV2ViIENvbnNvcnRp
dW0xPjA8BgNVBAsTNXczYy13aWRnZXRzLWRpZ3NpZy10ZXN0c3VpdGUgc2Vjb25k
IGxldmVsIGNlcnRpZmljYXRlMRswGQYDVQQDExJodHRwOi8vd3d3LnczLm9yZy8x
IDAeBgkqhkiG9w0BCQEWEXN0dWFydGtAb3BlcmEuY29tMB4XDTEwMDgyNjA5MTU0
NloXDTIwMDgyMzA5MTU0NlowgboxCzAJBgNVBAYTAk5PMQ0wCwYDVQQIEwRPc2xv
MSIwIAYDVQQKExlXb3JsZCBXaWRlIFdlYiBDb25zb3J0aXVtMTkwNwYDVQQLEzB3
M2Mtd2lkZ2V0cy1kaWdzaWctdGVzdHN1aXRlIHJldm9rZWQgY2VydGlmaWNhdGUx
GzAZBgNVBAMTEmh0dHA6Ly93d3cudzMub3JnLzEgMB4GCSqGSIb3DQEJARYRc3R1
YXJ0a0BvcGVyYS5jb20wggEiMA0GCSqGSIb3DQEBAQUAA4IBDwAwggEKAoIBAQDW
KRVmxul+SdxUVZdNCfOSGi5NHvL56wPs0ciMZbVQwAPyDUplEri9Do5sPUcTeH0m
yrRNntOxYrGIO3QLrBuY6Cgg6elYrpQ6ySEA/JjOZSoM0L56kApHTAo90TrQbChM
on/HElcrNnG8AAmqg+Gm/Jjjk0YCv5EDjTD397cQPYG43Dtxo/fbzlfIBjbrbFkD
EfU7PjYN2kYBPak4RBYmnWszUJ/97+8CoEIvfqCHqpvtRRmlyUrM59QPwoqHFCXh
BD/DA3yQeAXAJOjhBUm2SHSlpy7XCe78vbgIZs/WyT7kOcvT03Y3k3wjaYoGUt6j
wGnwU3TrHBu4ihPcxYmhAgMBAAGjggGFMIIBgTAJBgNVHRMEAjAAMBEGCWCGSAGG
+EIBAQQEAwIEsDALBgNVHQ8EBAMCBeAwPwYJYIZIAYb4QgENBDIWMHczYy13aWRn
ZXRzLWRpZ3NpZy10ZXN0c3VpdGUgcmV2b2tlZCBjZXJ0aWZpY2F0ZTAdBgNVHQ4E
FgQUKL9ERXXZp4Ic+0DfLb9gxmS7Zc4wgfMGA1UdIwSB6zCB6IAU/2q08cv3fsTB
JsNhjbsYXu/CJnahgcykgckwgcYxCzAJBgNVBAYTAk5PMQ0wCwYDVQQIEwRPc2xv
MQ0wCwYDVQQHEwRPc2xvMSIwIAYDVQQKExlXb3JsZCBXaWRlIFdlYiBDb25zb3J0
aXVtMTYwNAYDVQQLEy13M2Mtd2lkZ2V0cy1kaWdzaWctdGVzdHN1aXRlIHJvb3Qg
Y2VydGlmaWNhdGUxGzAZBgNVBAMTEmh0dHA6Ly93d3cudzMub3JnLzEgMB4GCSqG
SIb3DQEJARYRc3R1YXJ0a0BvcGVyYS5jb22CAQEwDQYJKoZIhvcNAQEFBQADggEB
ADdP0CAcoHqYyiN+eTyQ56qf/kUxbz7HNM/YpgdvkckHECzSQJd8Wz3pVDV98+Qi
Ad3F6bsiai2GRRr/rHHjZ2EA85h73VLkWzJXtB2tJcd5iOFTta0vGVBvsHqh5Ac2
p7BIqhIZbXBhTO6ZFDuBtaCCJd/z1MxwbDmgY7XeMADFU6BMU6fgxOkcwGhX433A
mcoJ+QUNWkALFrcnrcmD1jiw29jm+EpnuqQCl7u1HOrdXrPbRp6vZJh4WmNuBcqE
grE7QBW819cCbjOnS0GggQNr+MG/GcYfaEuRsqrrffuADZrm0Li/OL0FUvFmNlQC
KEI5Il8TdQy+bCZCZaXSGT4=
-----END CERTIFICATE-----
